
temp.o:     file format elf64-littleaarch64


Disassembly of section .text:

0000000000000000 <start>:
   0:	d2ee0000 	mov	x0, #0x7000000000000000    	// #8070450532247928832
   4:	d2e80001 	mov	x1, #0x4000000000000000    	// #4611686018427387904
   8:	d503201f 	nop
   c:	d503201f 	nop
  10:	d503201f 	nop
  14:	ab01001f 	cmn	x0, x1
  18:	d503201f 	nop
  1c:	d503201f 	nop
  20:	d503201f 	nop
  24:	d503201f 	nop
  28:	540001c6 	b.vs	60 <.willoverflow>

000000000000002c <.goback>:
  2c:	d503201f 	nop
  30:	d503201f 	nop
  34:	d503201f 	nop
  38:	ca0500a5 	eor	x5, x5, x5
  3c:	d503201f 	nop
  40:	d503201f 	nop
  44:	d503201f 	nop
  48:	aa2503e5 	mvn	x5, x5
  4c:	d503201f 	nop
  50:	d503201f 	nop
  54:	d503201f 	nop
  58:	f80000a0 	stur	x0, [x5]
  5c:	d65f03c0 	ret

0000000000000060 <.willoverflow>:
  60:	d503201f 	nop
  64:	d503201f 	nop
  68:	d503201f 	nop
  6c:	91003400 	add	x0, x0, #0xd
  70:	d503201f 	nop
  74:	d503201f 	nop
  78:	d503201f 	nop
  7c:	91003000 	add	x0, x0, #0xc
  80:	d503201f 	nop
  84:	d503201f 	nop
  88:	d503201f 	nop
  8c:	17ffffe8 	b	2c <.goback>
